; ModuleID = 'source-C-CXX/34/9.c'
source_filename = "source-C-CXX/34/9.c"
target datalayout = "e-m:e-p270:32:32-p271:32:32-p272:64:64-i64:64-f80:128-n8:16:32:64-S128"
target triple = "x86_64-pc-linux-gnu"

@.str = private unnamed_addr constant [6 x i8] c"%d,%d\00", align 1
@.str.1 = private unnamed_addr constant [3 x i8] c"%d\00", align 1
@.str.2 = private unnamed_addr constant [7 x i8] c"%d+%d\0A\00", align 1
@str = private unnamed_addr constant [3 x i8] c"No\00", align 1

; Function Attrs: nofree nounwind sspstrong uwtable
define dso_local void @main() local_unnamed_addr #0 {
  %1 = alloca i32, align 4
  %2 = alloca i32, align 4
  %3 = alloca [100 x [100 x i32]], align 16
  %4 = alloca [100 x i32], align 16
  %5 = bitcast [100 x i32]* %4 to i8*
  %6 = bitcast i32* %1 to i8*
  call void @llvm.lifetime.start.p0i8(i64 4, i8* nonnull %6) #5
  %7 = bitcast i32* %2 to i8*
  call void @llvm.lifetime.start.p0i8(i64 4, i8* nonnull %7) #5
  %8 = bitcast [100 x [100 x i32]]* %3 to i8*
  call void @llvm.lifetime.start.p0i8(i64 40000, i8* nonnull %8) #5
  call void @llvm.memset.p0i8.i64(i8* noundef nonnull align 16 dereferenceable(40000) %8, i8 0, i64 40000, i1 false)
  call void @llvm.lifetime.start.p0i8(i64 400, i8* nonnull %5) #5
  %9 = call i32 (i8*, ...) @__isoc99_scanf(i8* getelementptr inbounds ([6 x i8], [6 x i8]* @.str, i64 0, i64 0), i32* nonnull %1, i32* nonnull %2)
  %10 = load i32, i32* %1, align 4, !tbaa !5
  %11 = icmp sgt i32 %10, 0
  br i1 %11, label %12, label %82

12:                                               ; preds = %0
  %13 = load i32, i32* %2, align 4, !tbaa !5
  %14 = icmp sgt i32 %13, 0
  br i1 %14, label %44, label %15

15:                                               ; preds = %12
  %16 = zext i32 %10 to i64
  %17 = shl nuw nsw i64 %16, 2
  call void @llvm.memset.p0i8.i64(i8* nonnull align 16 %5, i8 0, i64 %17, i1 false)
  br label %20

18:                                               ; preds = %70
  %19 = icmp sgt i32 %71, 0
  br i1 %19, label %20, label %82

20:                                               ; preds = %15, %18
  %21 = phi i32 [ %10, %15 ], [ %71, %18 ]
  %22 = zext i32 %21 to i64
  br label %23

23:                                               ; preds = %20, %41
  %24 = phi i64 [ 0, %20 ], [ %42, %41 ]
  %25 = getelementptr inbounds [100 x i32], [100 x i32]* %4, i64 0, i64 %24
  %26 = load i32, i32* %25, align 4, !tbaa !5
  %27 = sext i32 %26 to i64
  %28 = getelementptr inbounds [100 x [100 x i32]], [100 x [100 x i32]]* %3, i64 0, i64 %24, i64 %27
  %29 = load i32, i32* %28, align 4, !tbaa !5
  br label %30

30:                                               ; preds = %23, %35
  %31 = phi i64 [ 0, %23 ], [ %36, %35 ]
  %32 = getelementptr inbounds [100 x [100 x i32]], [100 x [100 x i32]]* %3, i64 0, i64 %31, i64 %27
  %33 = load i32, i32* %32, align 4, !tbaa !5
  %34 = icmp slt i32 %33, %29
  br i1 %34, label %38, label %35

35:                                               ; preds = %30
  %36 = add nuw nsw i64 %31, 1
  %37 = icmp eq i64 %36, %22
  br i1 %37, label %76, label %30, !llvm.loop !9

38:                                               ; preds = %30
  %39 = trunc i64 %31 to i32
  %40 = icmp eq i32 %21, %39
  br i1 %40, label %76, label %41

41:                                               ; preds = %38
  %42 = add nuw nsw i64 %24, 1
  %43 = icmp eq i64 %42, %22
  br i1 %43, label %82, label %23, !llvm.loop !11

44:                                               ; preds = %12, %70
  %45 = phi i32 [ %71, %70 ], [ %10, %12 ]
  %46 = phi i32 [ %72, %70 ], [ %13, %12 ]
  %47 = phi i64 [ %73, %70 ], [ 0, %12 ]
  %48 = getelementptr inbounds [100 x i32], [100 x i32]* %4, i64 0, i64 %47
  store i32 0, i32* %48, align 4, !tbaa !5
  %49 = icmp sgt i32 %46, 0
  br i1 %49, label %50, label %70

50:                                               ; preds = %44, %62
  %51 = phi i32 [ %63, %62 ], [ 0, %44 ]
  %52 = phi i64 [ %64, %62 ], [ 0, %44 ]
  %53 = getelementptr inbounds [100 x [100 x i32]], [100 x [100 x i32]]* %3, i64 0, i64 %47, i64 %52
  %54 = call i32 (i8*, ...) @__isoc99_scanf(i8* getelementptr inbounds ([3 x i8], [3 x i8]* @.str.1, i64 0, i64 0), i32* nonnull %53)
  %55 = load i32, i32* %53, align 4, !tbaa !5
  %56 = sext i32 %51 to i64
  %57 = getelementptr inbounds [100 x [100 x i32]], [100 x [100 x i32]]* %3, i64 0, i64 %47, i64 %56
  %58 = load i32, i32* %57, align 4, !tbaa !5
  %59 = icmp sgt i32 %55, %58
  br i1 %59, label %60, label %62

60:                                               ; preds = %50
  %61 = trunc i64 %52 to i32
  store i32 %61, i32* %48, align 4, !tbaa !5
  br label %62

62:                                               ; preds = %50, %60
  %63 = phi i32 [ %51, %50 ], [ %61, %60 ]
  %64 = add nuw nsw i64 %52, 1
  %65 = load i32, i32* %2, align 4, !tbaa !5
  %66 = sext i32 %65 to i64
  %67 = icmp slt i64 %64, %66
  br i1 %67, label %50, label %68, !llvm.loop !12

68:                                               ; preds = %62
  %69 = load i32, i32* %1, align 4, !tbaa !5
  br label %70

70:                                               ; preds = %68, %44
  %71 = phi i32 [ %69, %68 ], [ %45, %44 ]
  %72 = phi i32 [ %65, %68 ], [ %46, %44 ]
  %73 = add nuw nsw i64 %47, 1
  %74 = sext i32 %71 to i64
  %75 = icmp slt i64 %73, %74
  br i1 %75, label %44, label %18, !llvm.loop !13

76:                                               ; preds = %38, %35
  %77 = trunc i64 %24 to i32
  %78 = and i64 %24, 4294967295
  %79 = getelementptr inbounds [100 x i32], [100 x i32]* %4, i64 0, i64 %78
  %80 = load i32, i32* %79, align 4, !tbaa !5
  %81 = call i32 (i8*, ...) @printf(i8* nonnull dereferenceable(1) getelementptr inbounds ([7 x i8], [7 x i8]* @.str.2, i64 0, i64 0), i32 %77, i32 %80)
  br label %87

82:                                               ; preds = %41, %0, %18
  %83 = phi i32 [ %71, %18 ], [ %10, %0 ], [ %21, %41 ]
  %84 = icmp eq i32 %83, 0
  br i1 %84, label %87, label %85

85:                                               ; preds = %82
  %86 = call i32 @puts(i8* nonnull dereferenceable(1) getelementptr inbounds ([3 x i8], [3 x i8]* @str, i64 0, i64 0))
  br label %87

87:                                               ; preds = %76, %85, %82
  call void @llvm.lifetime.end.p0i8(i64 400, i8* nonnull %5) #5
  call void @llvm.lifetime.end.p0i8(i64 40000, i8* nonnull %8) #5
  call void @llvm.lifetime.end.p0i8(i64 4, i8* nonnull %7) #5
  call void @llvm.lifetime.end.p0i8(i64 4, i8* nonnull %6) #5
  ret void
}

; Function Attrs: argmemonly mustprogress nofree nosync nounwind willreturn
declare void @llvm.lifetime.start.p0i8(i64 immarg, i8* nocapture) #1

; Function Attrs: argmemonly mustprogress nofree nounwind willreturn writeonly
declare void @llvm.memset.p0i8.i64(i8* nocapture writeonly, i8, i64, i1 immarg) #2

; Function Attrs: nofree nounwind
declare noundef i32 @__isoc99_scanf(i8* nocapture noundef readonly, ...) local_unnamed_addr #3

; Function Attrs: nofree nounwind
declare noundef i32 @printf(i8* nocapture noundef readonly, ...) local_unnamed_addr #3

; Function Attrs: argmemonly mustprogress nofree nosync nounwind willreturn
declare void @llvm.lifetime.end.p0i8(i64 immarg, i8* nocapture) #1

; Function Attrs: nofree nounwind
declare noundef i32 @puts(i8* nocapture noundef readonly) local_unnamed_addr #4


!llvm.module.flags = !{!0, !1, !2, !3}
!llvm.ident = !{!4}

!0 = !{i32 1, !"wchar_size", i32 4}
!1 = !{i32 7, !"PIC Level", i32 2}
!2 = !{i32 7, !"PIE Level", i32 2}
!3 = !{i32 7, !"uwtable", i32 1}
!4 = !{!"clang version 13.0.0"}
!5 = !{!6, !6, i64 0}
!6 = !{!"int", !7, i64 0}
!7 = !{!"omnipotent char", !8, i64 0}
!8 = !{!"Simple C/C++ TBAA"}
!9 = distinct !{!9, !10}
!10 = !{!"llvm.loop.mustprogress"}
!11 = distinct !{!11, !10}
!12 = distinct !{!12, !10}
!13 = distinct !{!13, !10, !14}
!14 = !{!"llvm.loop.unswitch.partial.disable"}
